; ModuleID = '46/1989.c'
source_filename = "46/1989.c"
target datalayout = "e-m:e-p270:32:32-p271:32:32-p272:64:64-i64:64-f80:128-n8:16:32:64-S128"
target triple = "x86_64-pc-linux-gnu"

@.str = private unnamed_addr constant [7 x i8] c"%d %d\0A\00", align 1
@.str.1 = private unnamed_addr constant [3 x i8] c"%d\00", align 1
@.str.2 = private unnamed_addr constant [4 x i8] c"\0A%d\00", align 1

; Function Attrs: noinline nounwind uwtable
define dso_local i32 @main() #0 {
  %1 = alloca i32, align 4
  %2 = alloca i32, align 4
  %3 = alloca i32, align 4
  %4 = alloca i32, align 4
  %5 = alloca i32, align 4
  %6 = alloca [100 x [100 x i32]], align 16
  %7 = alloca i32, align 4
  %8 = alloca i32, align 4
  %9 = alloca i32, align 4
  %10 = alloca i32, align 4
  store i32 0, i32* %1, align 4
  %11 = call i32 (i8*, ...) @__isoc99_scanf(i8* getelementptr inbounds ([7 x i8], [7 x i8]* @.str, i64 0, i64 0), i32* %2, i32* %3)
  store i32 0, i32* %4, align 4
  br label %12

12:                                               ; preds = %33, %0
  %13 = load i32, i32* %4, align 4
  %14 = load i32, i32* %2, align 4
  %15 = icmp slt i32 %13, %14
  br i1 %15, label %16, label %36

16:                                               ; preds = %12
  store i32 0, i32* %5, align 4
  br label %17

17:                                               ; preds = %29, %16
  %18 = load i32, i32* %5, align 4
  %19 = load i32, i32* %3, align 4
  %20 = icmp slt i32 %18, %19
  br i1 %20, label %21, label %32

21:                                               ; preds = %17
  %22 = load i32, i32* %4, align 4
  %23 = sext i32 %22 to i64
  %24 = getelementptr inbounds [100 x [100 x i32]], [100 x [100 x i32]]* %6, i64 0, i64 %23
  %25 = load i32, i32* %5, align 4
  %26 = sext i32 %25 to i64
  %27 = getelementptr inbounds [100 x i32], [100 x i32]* %24, i64 0, i64 %26
  %28 = call i32 (i8*, ...) @__isoc99_scanf(i8* getelementptr inbounds ([3 x i8], [3 x i8]* @.str.1, i64 0, i64 0), i32* %27)
  br label %29

29:                                               ; preds = %21
  %30 = load i32, i32* %5, align 4
  %31 = add nsw i32 %30, 1
  store i32 %31, i32* %5, align 4
  br label %17

32:                                               ; preds = %17
  br label %33

33:                                               ; preds = %32
  %34 = load i32, i32* %4, align 4
  %35 = add nsw i32 %34, 1
  store i32 %35, i32* %4, align 4
  br label %12

36:                                               ; preds = %12
  store i32 0, i32* %7, align 4
  %37 = load i32, i32* %2, align 4
  %38 = sub nsw i32 %37, 1
  store i32 %38, i32* %8, align 4
  store i32 0, i32* %9, align 4
  %39 = load i32, i32* %3, align 4
  %40 = sub nsw i32 %39, 1
  store i32 %40, i32* %10, align 4
  br label %41

41:                                               ; preds = %139, %36
  %42 = load i32, i32* %7, align 4
  %43 = load i32, i32* %8, align 4
  %44 = icmp slt i32 %42, %43
  br i1 %44, label %45, label %49

45:                                               ; preds = %41
  %46 = load i32, i32* %9, align 4
  %47 = load i32, i32* %10, align 4
  %48 = icmp slt i32 %46, %47
  br label %49

49:                                               ; preds = %45, %41
  %50 = phi i1 [ false, %41 ], [ %48, %45 ]
  br i1 %50, label %51, label %148

51:                                               ; preds = %49
  %52 = load i32, i32* %9, align 4
  store i32 %52, i32* %5, align 4
  br label %53

53:                                               ; preds = %82, %51
  %54 = load i32, i32* %5, align 4
  %55 = load i32, i32* %10, align 4
  %56 = icmp slt i32 %54, %55
  br i1 %56, label %57, label %85

57:                                               ; preds = %53
  %58 = load i32, i32* %7, align 4
  %59 = icmp eq i32 %58, 0
  br i1 %59, label %60, label %72

60:                                               ; preds = %57
  %61 = load i32, i32* %5, align 4
  %62 = icmp eq i32 %61, 0
  br i1 %62, label %63, label %72

63:                                               ; preds = %60
  %64 = load i32, i32* %7, align 4
  %65 = sext i32 %64 to i64
  %66 = getelementptr inbounds [100 x [100 x i32]], [100 x [100 x i32]]* %6, i64 0, i64 %65
  %67 = load i32, i32* %5, align 4
  %68 = sext i32 %67 to i64
  %69 = getelementptr inbounds [100 x i32], [100 x i32]* %66, i64 0, i64 %68
  %70 = load i32, i32* %69, align 4
  %71 = call i32 (i8*, ...) @printf(i8* getelementptr inbounds ([3 x i8], [3 x i8]* @.str.1, i64 0, i64 0), i32 %70)
  br label %81

72:                                               ; preds = %60, %57
  %73 = load i32, i32* %7, align 4
  %74 = sext i32 %73 to i64
  %75 = getelementptr inbounds [100 x [100 x i32]], [100 x [100 x i32]]* %6, i64 0, i64 %74
  %76 = load i32, i32* %5, align 4
  %77 = sext i32 %76 to i64
  %78 = getelementptr inbounds [100 x i32], [100 x i32]* %75, i64 0, i64 %77
  %79 = load i32, i32* %78, align 4
  %80 = call i32 (i8*, ...) @printf(i8* getelementptr inbounds ([4 x i8], [4 x i8]* @.str.2, i64 0, i64 0), i32 %79)
  br label %81

81:                                               ; preds = %72, %63
  br label %82

82:                                               ; preds = %81
  %83 = load i32, i32* %5, align 4
  %84 = add nsw i32 %83, 1
  store i32 %84, i32* %5, align 4
  br label %53

85:                                               ; preds = %53
  %86 = load i32, i32* %7, align 4
  store i32 %86, i32* %4, align 4
  br label %87

87:                                               ; preds = %100, %85
  %88 = load i32, i32* %4, align 4
  %89 = load i32, i32* %8, align 4
  %90 = icmp slt i32 %88, %89
  br i1 %90, label %91, label %103

91:                                               ; preds = %87
  %92 = load i32, i32* %4, align 4
  %93 = sext i32 %92 to i64
  %94 = getelementptr inbounds [100 x [100 x i32]], [100 x [100 x i32]]* %6, i64 0, i64 %93
  %95 = load i32, i32* %10, align 4
  %96 = sext i32 %95 to i64
  %97 = getelementptr inbounds [100 x i32], [100 x i32]* %94, i64 0, i64 %96
  %98 = load i32, i32* %97, align 4
  %99 = call i32 (i8*, ...) @printf(i8* getelementptr inbounds ([4 x i8], [4 x i8]* @.str.2, i64 0, i64 0), i32 %98)
  br label %100

100:                                              ; preds = %91
  %101 = load i32, i32* %4, align 4
  %102 = add nsw i32 %101, 1
  store i32 %102, i32* %4, align 4
  br label %87

103:                                              ; preds = %87
  %104 = load i32, i32* %10, align 4
  store i32 %104, i32* %5, align 4
  br label %105

105:                                              ; preds = %118, %103
  %106 = load i32, i32* %5, align 4
  %107 = load i32, i32* %9, align 4
  %108 = icmp sgt i32 %106, %107
  br i1 %108, label %109, label %121

109:                                              ; preds = %105
  %110 = load i32, i32* %8, align 4
  %111 = sext i32 %110 to i64
  %112 = getelementptr inbounds [100 x [100 x i32]], [100 x [100 x i32]]* %6, i64 0, i64 %111
  %113 = load i32, i32* %5, align 4
  %114 = sext i32 %113 to i64
  %115 = getelementptr inbounds [100 x i32], [100 x i32]* %112, i64 0, i64 %114
  %116 = load i32, i32* %115, align 4
  %117 = call i32 (i8*, ...) @printf(i8* getelementptr inbounds ([4 x i8], [4 x i8]* @.str.2, i64 0, i64 0), i32 %116)
  br label %118

118:                                              ; preds = %109
  %119 = load i32, i32* %5, align 4
  %120 = add nsw i32 %119, -1
  store i32 %120, i32* %5, align 4
  br label %105

121:                                              ; preds = %105
  %122 = load i32, i32* %8, align 4
  store i32 %122, i32* %4, align 4
  br label %123

123:                                              ; preds = %136, %121
  %124 = load i32, i32* %4, align 4
  %125 = load i32, i32* %7, align 4
  %126 = icmp sgt i32 %124, %125
  br i1 %126, label %127, label %139

127:                                              ; preds = %123
  %128 = load i32, i32* %4, align 4
  %129 = sext i32 %128 to i64
  %130 = getelementptr inbounds [100 x [100 x i32]], [100 x [100 x i32]]* %6, i64 0, i64 %129
  %131 = load i32, i32* %9, align 4
  %132 = sext i32 %131 to i64
  %133 = getelementptr inbounds [100 x i32], [100 x i32]* %130, i64 0, i64 %132
  %134 = load i32, i32* %133, align 4
  %135 = call i32 (i8*, ...) @printf(i8* getelementptr inbounds ([4 x i8], [4 x i8]* @.str.2, i64 0, i64 0), i32 %134)
  br label %136

136:                                              ; preds = %127
  %137 = load i32, i32* %4, align 4
  %138 = add nsw i32 %137, -1
  store i32 %138, i32* %4, align 4
  br label %123

139:                                              ; preds = %123
  %140 = load i32, i32* %7, align 4
  %141 = add nsw i32 %140, 1
  store i32 %141, i32* %7, align 4
  %142 = load i32, i32* %8, align 4
  %143 = sub nsw i32 %142, 1
  store i32 %143, i32* %8, align 4
  %144 = load i32, i32* %9, align 4
  %145 = add nsw i32 %144, 1
  store i32 %145, i32* %9, align 4
  %146 = load i32, i32* %10, align 4
  %147 = sub nsw i32 %146, 1
  store i32 %147, i32* %10, align 4
  br label %41

148:                                              ; preds = %49
  %149 = load i32, i32* %2, align 4
  %150 = load i32, i32* %3, align 4
  %151 = icmp sle i32 %149, %150
  br i1 %151, label %152, label %202

152:                                              ; preds = %148
  %153 = load i32, i32* %2, align 4
  %154 = srem i32 %153, 2
  %155 = icmp eq i32 %154, 1
  br i1 %155, label %156, label %202

156:                                              ; preds = %152
  %157 = load i32, i32* %2, align 4
  %158 = sub nsw i32 %157, 1
  %159 = sdiv i32 %158, 2
  store i32 %159, i32* %5, align 4
  br label %160

160:                                              ; preds = %198, %156
  %161 = load i32, i32* %5, align 4
  %162 = load i32, i32* %3, align 4
  %163 = sub nsw i32 %162, 1
  %164 = load i32, i32* %2, align 4
  %165 = sub nsw i32 %164, 1
  %166 = sdiv i32 %165, 2
  %167 = sub nsw i32 %163, %166
  %168 = icmp sle i32 %161, %167
  br i1 %168, label %169, label %201

169:                                              ; preds = %160
  %170 = load i32, i32* %2, align 4
  %171 = icmp eq i32 %170, 1
  br i1 %171, label %172, label %186

172:                                              ; preds = %169
  %173 = load i32, i32* %5, align 4
  %174 = icmp eq i32 %173, 0
  br i1 %174, label %175, label %186

175:                                              ; preds = %172
  %176 = load i32, i32* %2, align 4
  %177 = sub nsw i32 %176, 1
  %178 = sdiv i32 %177, 2
  %179 = sext i32 %178 to i64
  %180 = getelementptr inbounds [100 x [100 x i32]], [100 x [100 x i32]]* %6, i64 0, i64 %179
  %181 = load i32, i32* %5, align 4
  %182 = sext i32 %181 to i64
  %183 = getelementptr inbounds [100 x i32], [100 x i32]* %180, i64 0, i64 %182
  %184 = load i32, i32* %183, align 4
  %185 = call i32 (i8*, ...) @printf(i8* getelementptr inbounds ([3 x i8], [3 x i8]* @.str.1, i64 0, i64 0), i32 %184)
  br label %197

186:                                              ; preds = %172, %169
  %187 = load i32, i32* %2, align 4
  %188 = sub nsw i32 %187, 1
  %189 = sdiv i32 %188, 2
  %190 = sext i32 %189 to i64
  %191 = getelementptr inbounds [100 x [100 x i32]], [100 x [100 x i32]]* %6, i64 0, i64 %190
  %192 = load i32, i32* %5, align 4
  %193 = sext i32 %192 to i64
  %194 = getelementptr inbounds [100 x i32], [100 x i32]* %191, i64 0, i64 %193
  %195 = load i32, i32* %194, align 4
  %196 = call i32 (i8*, ...) @printf(i8* getelementptr inbounds ([4 x i8], [4 x i8]* @.str.2, i64 0, i64 0), i32 %195)
  br label %197

197:                                              ; preds = %186, %175
  br label %198

198:                                              ; preds = %197
  %199 = load i32, i32* %5, align 4
  %200 = add nsw i32 %199, 1
  store i32 %200, i32* %5, align 4
  br label %160

201:                                              ; preds = %160
  br label %202

202:                                              ; preds = %201, %152, %148
  %203 = load i32, i32* %3, align 4
  %204 = load i32, i32* %2, align 4
  %205 = icmp slt i32 %203, %204
  br i1 %205, label %206, label %238

206:                                              ; preds = %202
  %207 = load i32, i32* %3, align 4
  %208 = srem i32 %207, 2
  %209 = icmp eq i32 %208, 1
  br i1 %209, label %210, label %238

210:                                              ; preds = %206
  %211 = load i32, i32* %3, align 4
  %212 = sub nsw i32 %211, 1
  %213 = sdiv i32 %212, 2
  store i32 %213, i32* %4, align 4
  br label %214

214:                                              ; preds = %234, %210
  %215 = load i32, i32* %4, align 4
  %216 = load i32, i32* %2, align 4
  %217 = sub nsw i32 %216, 1
  %218 = load i32, i32* %3, align 4
  %219 = sub nsw i32 %218, 1
  %220 = sdiv i32 %219, 2
  %221 = sub nsw i32 %217, %220
  %222 = icmp sle i32 %215, %221
  br i1 %222, label %223, label %237

223:                                              ; preds = %214
  %224 = load i32, i32* %4, align 4
  %225 = sext i32 %224 to i64
  %226 = getelementptr inbounds [100 x [100 x i32]], [100 x [100 x i32]]* %6, i64 0, i64 %225
  %227 = load i32, i32* %3, align 4
  %228 = sub nsw i32 %227, 1
  %229 = sdiv i32 %228, 2
  %230 = sext i32 %229 to i64
  %231 = getelementptr inbounds [100 x i32], [100 x i32]* %226, i64 0, i64 %230
  %232 = load i32, i32* %231, align 4
  %233 = call i32 (i8*, ...) @printf(i8* getelementptr inbounds ([4 x i8], [4 x i8]* @.str.2, i64 0, i64 0), i32 %232)
  br label %234

234:                                              ; preds = %223
  %235 = load i32, i32* %4, align 4
  %236 = add nsw i32 %235, 1
  store i32 %236, i32* %4, align 4
  br label %214

237:                                              ; preds = %214
  br label %238

238:                                              ; preds = %237, %206, %202
  ret i32 0
}

declare dso_local i32 @__isoc99_scanf(i8*, ...) #1

declare dso_local i32 @printf(i8*, ...) #1


!llvm.module.flags = !{!0}
!llvm.ident = !{!1}

!0 = !{i32 1, !"wchar_size", i32 4}
!1 = !{!"clang version 10.0.0-4ubuntu1 "}
